; Function Attrs: nounwind uwtable
define internal fastcc noundef ptr @cloneNode(ptr noundef %0, ptr noundef %1) unnamed_addr #1 {
  %3 = alloca %struct.agxbuf, align 8
  %4 = tail call ptr @agnameof(ptr noundef %1) #22
  %5 = tail call ptr @agnode(ptr noundef %0, ptr noundef %4, i32 noundef 1) #22
  %6 = tail call ptr @agbindrec(ptr noundef %5, ptr noundef nonnull @.str.39, i32 noundef 472, i32 noundef 1) #22
  %7 = tail call i32 @agcopyattr(ptr noundef %1, ptr noundef %5) #22
  %8 = tail call i32 @shapeOf(ptr noundef %1) #22
  %9 = icmp eq i32 %8, 2
  br i1 %9, label %10, label %41

10:                                               ; preds = %2
  call void @llvm.lifetime.start.p0(i64 32, ptr nonnull %3) #22
  call void @llvm.memset.p0.i64(ptr noundef nonnull align 8 dereferenceable(32) %3, i8 0, i64 32, i1 false)
  %11 = getelementptr inbounds nuw i8, ptr %1, i64 16
  %12 = load ptr, ptr %11, align 8, !tbaa !16
  %13 = getelementptr inbounds nuw i8, ptr %12, i64 136
  %14 = load ptr, ptr %13, align 8, !tbaa !71
  %15 = load ptr, ptr %14, align 8, !tbaa !258
  call void (ptr, ptr, ...) @agxbprint(ptr noundef %3, ptr nonnull poison, ptr noundef %15)
  %16 = getelementptr inbounds nuw i8, ptr %3, i64 31
  %.val.i = load i8, ptr %16, align 1, !tbaa !130
  switch i8 %.val.i, label %agxblen.exit.i.i [
    i8 -1, label %18
    i8 31, label %agxbclear.exit.thread.i
  ]

agxblen.exit.i.i:                                 ; preds = %10
  %17 = zext i8 %.val.i to i64
  br label %agxbsizeof.exit.i.i

18:                                               ; preds = %10
  %19 = getelementptr inbounds nuw i8, ptr %3, i64 8
  %20 = load i64, ptr %19, align 8, !tbaa !130
  %21 = getelementptr inbounds nuw i8, ptr %3, i64 16
  %22 = load i64, ptr %21, align 8, !tbaa !130
  br label %agxbsizeof.exit.i.i

agxbsizeof.exit.i.i:                              ; preds = %18, %agxblen.exit.i.i
  %.0.i20.i.i = phi i64 [ %20, %18 ], [ %17, %agxblen.exit.i.i ]
  %.0.i14.i.i = phi i64 [ %22, %18 ], [ 31, %agxblen.exit.i.i ]
  %.not.i5.i = icmp ult i64 %.0.i20.i.i, %.0.i14.i.i
  br i1 %.not.i5.i, label %24, label %23

23:                                               ; preds = %agxbsizeof.exit.i.i
  call fastcc void @agxbmore(ptr noundef nonnull %3, i64 noundef 1)
  %.val.i15.pre.i.i = load i8, ptr %16, align 1, !tbaa !130
  br label %24

24:                                               ; preds = %23, %agxbsizeof.exit.i.i
  %.val.i6.pr.i = phi i8 [ %.val.i15.pre.i.i, %23 ], [ %.val.i, %agxbsizeof.exit.i.i ]
  %.not.i16.i.i = icmp eq i8 %.val.i6.pr.i, -1
  br i1 %.not.i16.i.i, label %agxbputc.exit.i.thread, label %agxbputc.exit.i

agxbputc.exit.i.thread:                           ; preds = %24
  %25 = getelementptr inbounds nuw i8, ptr %3, i64 8
  %26 = load i64, ptr %25, align 8, !tbaa !130
  %27 = load ptr, ptr %3, align 8, !tbaa !130
  %28 = getelementptr inbounds nuw i8, ptr %27, i64 %26
  store i8 0, ptr %28, align 1, !tbaa !130
  br label %34

agxbputc.exit.i:                                  ; preds = %24
  %29 = zext i8 %.val.i6.pr.i to i64
  %30 = getelementptr inbounds nuw [31 x i8], ptr %3, i64 0, i64 %29
  store i8 0, ptr %30, align 1, !tbaa !130
  %31 = load i8, ptr %16, align 1, !tbaa !130
  %32 = add i8 %31, 1
  store i8 %32, ptr %16, align 1, !tbaa !130
  %33 = icmp eq i8 %32, -1
  br i1 %33, label %34, label %agxbclear.exit.thread.i

agxbclear.exit.thread.i:                          ; preds = %agxbputc.exit.i, %10
  store i8 0, ptr %16, align 1, !tbaa !130
  br label %agxbuse.exit

34:                                               ; preds = %agxbputc.exit.i.thread, %agxbputc.exit.i
  %35 = getelementptr inbounds nuw i8, ptr %3, i64 8
  store i64 0, ptr %35, align 8, !tbaa !130
  %36 = load ptr, ptr %3, align 8, !tbaa !130
  br label %agxbuse.exit

agxbuse.exit:                                     ; preds = %agxbclear.exit.thread.i, %34
  %37 = phi ptr [ %36, %34 ], [ %3, %agxbclear.exit.thread.i ]
  %38 = call i32 @agset(ptr noundef %5, ptr noundef nonnull @.str.24, ptr noundef %37) #22
  %.val9 = load i8, ptr %16, align 1, !tbaa !130
  %39 = icmp eq i8 %.val9, -1
  br i1 %39, label %40, label %agxbfree.exit

40:                                               ; preds = %agxbuse.exit
  %.val = load ptr, ptr %3, align 8
  call void @free(ptr noundef %.val) #22
  br label %agxbfree.exit

agxbfree.exit:                                    ; preds = %agxbuse.exit, %40
  call void @llvm.lifetime.end.p0(i64 32, ptr nonnull %3) #22
  br label %41

41:                                               ; preds = %agxbfree.exit, %2
  ret ptr %5
}